target datalayout = "e-m:e-p270:32:32-p271:32:32-p272:64:64-i64:64-i128:128-f80:128-n8:16:32:64-S128"
target triple = "x86_64-pc-linux-gnu"

%struct.ident_t = type { i32, i32, i32, i32, ptr }
%"struct.OpenSubdiv::v3_6_0::Osd::BufferDescriptor" = type { i32, i32, i32 }

@2 = private unnamed_addr constant %struct.ident_t { i32 0, i32 2, i32 0, i32 22, ptr @0 }, align 8

; Function Attrs: mustprogress uwtable
define void @_ZN10OpenSubdiv6v3_6_03Osd15OmpEvalStencilsEPKfRKNS1_16BufferDescriptorEPfS6_S7_S6_S7_S6_PKiS9_S9_S3_S3_S3_ii(ptr noundef %0, ptr noundef nonnull align 4 dereferenceable(12) %1, ptr noundef %2, ptr noundef nonnull align 4 dereferenceable(12) %3, ptr noundef %4, ptr noundef nonnull align 4 dereferenceable(12) %5, ptr noundef %6, ptr noundef nonnull align 4 dereferenceable(12) %7, ptr noundef %8, ptr noundef %9, ptr noundef %10, ptr noundef %11, ptr noundef %12, ptr noundef %13, i32 noundef %14, i32 noundef %15) #0 {
  %17 = alloca ptr, align 8
  %18 = alloca ptr, align 8
  %19 = alloca ptr, align 8
  %20 = alloca ptr, align 8
  %21 = alloca ptr, align 8
  %22 = alloca ptr, align 8
  %23 = alloca ptr, align 8
  %24 = alloca ptr, align 8
  %25 = alloca ptr, align 8
  %26 = alloca ptr, align 8
  %27 = alloca ptr, align 8
  %28 = alloca ptr, align 8
  %29 = alloca ptr, align 8
  %30 = alloca ptr, align 8
  %31 = alloca i32, align 4
  %32 = alloca i32, align 4
  %33 = alloca i32, align 4
  %34 = alloca i32, align 4
  %35 = alloca ptr, align 8
  %36 = alloca ptr, align 8
  %37 = alloca ptr, align 8
  store ptr %0, ptr %17, align 8
  store ptr %1, ptr %18, align 8
  store ptr %2, ptr %19, align 8
  store ptr %3, ptr %20, align 8
  store ptr %4, ptr %21, align 8
  store ptr %5, ptr %22, align 8
  store ptr %6, ptr %23, align 8
  store ptr %7, ptr %24, align 8
  store ptr %8, ptr %25, align 8
  store ptr %9, ptr %26, align 8
  store ptr %10, ptr %27, align 8
  store ptr %11, ptr %28, align 8
  store ptr %12, ptr %29, align 8
  store ptr %13, ptr %30, align 8
  store i32 %14, ptr %31, align 4
  store i32 %15, ptr %32, align 4
  %38 = load i32, ptr %31, align 4
  %39 = icmp sgt i32 %38, 0
  br i1 %39, label %40, label %42

40:                                               ; preds = %16
  %41 = load i32, ptr %31, align 4
  br label %43

42:                                               ; preds = %16
  br label %43

43:                                               ; preds = %42, %40
  %44 = phi i32 [ %41, %40 ], [ 0, %42 ]
  store i32 %44, ptr %31, align 4
  %45 = load ptr, ptr %18, align 8
  %46 = getelementptr inbounds nuw %"struct.OpenSubdiv::v3_6_0::Osd::BufferDescriptor", ptr %45, i32 0, i32 0
  %47 = load i32, ptr %46, align 4
  %48 = load ptr, ptr %17, align 8
  %49 = sext i32 %47 to i64
  %50 = getelementptr inbounds float, ptr %48, i64 %49
  store ptr %50, ptr %17, align 8
  %51 = load ptr, ptr %20, align 8
  %52 = getelementptr inbounds nuw %"struct.OpenSubdiv::v3_6_0::Osd::BufferDescriptor", ptr %51, i32 0, i32 0
  %53 = load i32, ptr %52, align 4
  %54 = load ptr, ptr %19, align 8
  %55 = sext i32 %53 to i64
  %56 = getelementptr inbounds float, ptr %54, i64 %55
  store ptr %56, ptr %19, align 8
  %57 = load ptr, ptr %22, align 8
  %58 = getelementptr inbounds nuw %"struct.OpenSubdiv::v3_6_0::Osd::BufferDescriptor", ptr %57, i32 0, i32 0
  %59 = load i32, ptr %58, align 4
  %60 = load ptr, ptr %21, align 8
  %61 = sext i32 %59 to i64
  %62 = getelementptr inbounds float, ptr %60, i64 %61
  store ptr %62, ptr %21, align 8
  %63 = load ptr, ptr %24, align 8
  %64 = getelementptr inbounds nuw %"struct.OpenSubdiv::v3_6_0::Osd::BufferDescriptor", ptr %63, i32 0, i32 0
  %65 = load i32, ptr %64, align 4
  %66 = load ptr, ptr %23, align 8
  %67 = sext i32 %65 to i64
  %68 = getelementptr inbounds float, ptr %66, i64 %67
  store ptr %68, ptr %23, align 8
  %69 = call i32 @omp_get_max_threads()
  store i32 %69, ptr %33, align 4
  %70 = load i32, ptr %32, align 4
  %71 = load i32, ptr %31, align 4
  %72 = sub nsw i32 %70, %71
  store i32 %72, ptr %34, align 4
  %73 = load ptr, ptr %18, align 8
  %74 = getelementptr inbounds nuw %"struct.OpenSubdiv::v3_6_0::Osd::BufferDescriptor", ptr %73, i32 0, i32 1
  %75 = load i32, ptr %74, align 4
  %76 = load i32, ptr %33, align 4
  %77 = mul nsw i32 %75, %76
  %78 = sext i32 %77 to i64
  %79 = mul i64 %78, 4
  %80 = alloca i8, i64 %79, align 16
  store ptr %80, ptr %35, align 8
  %81 = load ptr, ptr %18, align 8
  %82 = getelementptr inbounds nuw %"struct.OpenSubdiv::v3_6_0::Osd::BufferDescriptor", ptr %81, i32 0, i32 1
  %83 = load i32, ptr %82, align 4
  %84 = load i32, ptr %33, align 4
  %85 = mul nsw i32 %83, %84
  %86 = sext i32 %85 to i64
  %87 = mul i64 %86, 4
  %88 = alloca i8, i64 %87, align 16
  store ptr %88, ptr %36, align 8
  %89 = load ptr, ptr %18, align 8
  %90 = getelementptr inbounds nuw %"struct.OpenSubdiv::v3_6_0::Osd::BufferDescriptor", ptr %89, i32 0, i32 1
  %91 = load i32, ptr %90, align 4
  %92 = load i32, ptr %33, align 4
  %93 = mul nsw i32 %91, %92
  %94 = sext i32 %93 to i64
  %95 = mul i64 %94, 4
  %96 = alloca i8, i64 %95, align 16
  store ptr %96, ptr %37, align 8
  %97 = load ptr, ptr %18, align 8
  %98 = load ptr, ptr %20, align 8
  %99 = load ptr, ptr %22, align 8
  %100 = load ptr, ptr %24, align 8
  call void (ptr, i32, ptr, ...) @__kmpc_fork_call(ptr @2, i32 19, ptr @_ZN10OpenSubdiv6v3_6_03Osd15OmpEvalStencilsEPKfRKNS1_16BufferDescriptorEPfS6_S7_S6_S7_S6_PKiS9_S9_S3_S3_S3_ii.omp_outlined, ptr %34, ptr %31, ptr %27, ptr %26, ptr %28, ptr %29, ptr %30, ptr %35, ptr %97, ptr %36, ptr %37, ptr %98, ptr %99, ptr %100, ptr %25, ptr %17, ptr %19, ptr %21, ptr %23)
  ret void
}