; Function Attrs: mustprogress nounwind uwtable
define void @_ZN10OpenSubdiv6v3_6_03Osd15OmpEvalStencilsEPKfRKNS1_16BufferDescriptorEPfS6_S7_S6_S7_S6_PKiS9_S9_S3_S3_S3_ii(ptr noundef %0, ptr noundef nonnull align 4 dereferenceable(12) %1, ptr noundef %2, ptr noundef nonnull align 4 dereferenceable(12) %3, ptr noundef %4, ptr noundef nonnull align 4 dereferenceable(12) %5, ptr noundef %6, ptr noundef nonnull align 4 dereferenceable(12) %7, ptr noundef %8, ptr noundef %9, ptr noundef %10, ptr noundef %11, ptr noundef %12, ptr noundef %13, i32 noundef %14, i32 noundef %15) local_unnamed_addr #0 {
  %17 = alloca ptr, align 8
  %18 = alloca ptr, align 8
  %19 = alloca ptr, align 8
  %20 = alloca ptr, align 8
  %21 = alloca ptr, align 8
  %22 = alloca ptr, align 8
  %23 = alloca ptr, align 8
  %24 = alloca ptr, align 8
  %25 = alloca ptr, align 8
  %26 = alloca ptr, align 8
  %27 = alloca i32, align 4
  %28 = alloca i32, align 4
  %29 = alloca ptr, align 8
  %30 = alloca ptr, align 8
  %31 = alloca ptr, align 8
  store ptr %8, ptr %21, align 8
  store ptr %9, ptr %22, align 8
  store ptr %10, ptr %23, align 8
  store ptr %11, ptr %24, align 8
  store ptr %12, ptr %25, align 8
  store ptr %13, ptr %26, align 8
  %32 = tail call i32 @llvm.smax.i32(i32 %14, i32 0)
  store i32 %32, ptr %27, align 4
  %33 = load i32, ptr %1, align 4
  %34 = sext i32 %33 to i64
  %35 = getelementptr inbounds float, ptr %0, i64 %34
  store ptr %35, ptr %17, align 8
  %36 = load i32, ptr %3, align 4
  %37 = sext i32 %36 to i64
  %38 = getelementptr inbounds float, ptr %2, i64 %37
  store ptr %38, ptr %18, align 8
  %39 = load i32, ptr %5, align 4
  %40 = sext i32 %39 to i64
  %41 = getelementptr inbounds float, ptr %4, i64 %40
  store ptr %41, ptr %19, align 8
  %42 = load i32, ptr %7, align 4
  %43 = sext i32 %42 to i64
  %44 = getelementptr inbounds float, ptr %6, i64 %43
  store ptr %44, ptr %20, align 8
  %45 = tail call i32 @omp_get_max_threads()
  %46 = sub nsw i32 %15, %32
  store i32 %46, ptr %28, align 4
  %47 = getelementptr inbounds nuw i8, ptr %1, i64 4
  %48 = load i32, ptr %47, align 4
  %49 = mul nsw i32 %48, %45
  %50 = sext i32 %49 to i64
  %51 = shl nsw i64 %50, 2
  %52 = alloca i8, i64 %51, align 16
  store ptr %52, ptr %29, align 8
  %53 = alloca i8, i64 %51, align 16
  store ptr %53, ptr %30, align 8
  %54 = alloca i8, i64 %51, align 16
  store ptr %54, ptr %31, align 8
  call void (ptr, i32, ptr, ...) @__kmpc_fork_call(ptr nonnull @2, i32 19, ptr nonnull @_ZN10OpenSubdiv6v3_6_03Osd15OmpEvalStencilsEPKfRKNS1_16BufferDescriptorEPfS6_S7_S6_S7_S6_PKiS9_S9_S3_S3_S3_ii.omp_outlined, ptr nonnull %28, ptr nonnull %27, ptr nonnull %23, ptr nonnull %22, ptr nonnull %24, ptr nonnull %25, ptr nonnull %26, ptr nonnull %29, ptr nonnull %1, ptr nonnull %30, ptr nonnull %31, ptr nonnull %3, ptr nonnull %5, ptr nonnull %7, ptr nonnull %21, ptr nonnull %17, ptr nonnull %18, ptr nonnull %19, ptr nonnull %20)
  ret void
}